; Function Attrs: mustprogress uwtable
define void @_ZN2cv15ImageCollection4Impl4readEv(ptr dead_on_unwind noalias writable sret(%"class.cv::Mat") align 8 %0, ptr noundef nonnull align 8 captures(none) dereferenceable(104) initializes((48, 56)) %1) local_unnamed_addr #4 align 2 {
  %3 = getelementptr inbounds nuw i8, ptr %1, i64 88
  %4 = load ptr, ptr %3, align 8, !tbaa !14
  %5 = load ptr, ptr %4, align 8, !tbaa !25
  %6 = getelementptr inbounds nuw i8, ptr %5, i64 48
  %7 = load ptr, ptr %6, align 8
  %8 = tail call noundef zeroext i1 %7(ptr noundef nonnull align 8 dereferenceable(368) %4)
  %9 = load ptr, ptr %3, align 8, !tbaa !14
  %10 = getelementptr inbounds nuw i8, ptr %9, i64 8
  %11 = load i32, ptr %10, align 8, !tbaa !38
  %12 = getelementptr inbounds nuw i8, ptr %1, i64 48
  store i32 %11, ptr %12, align 8, !tbaa !262
  %13 = getelementptr inbounds nuw i8, ptr %9, i64 12
  %14 = load i32, ptr %13, align 4, !tbaa !76
  %15 = getelementptr inbounds nuw i8, ptr %1, i64 52
  store i32 %14, ptr %15, align 4, !tbaa !263
  br i1 %8, label %17, label %16

16:                                               ; preds = %2
  tail call void @_ZN2cv3MatC1Ev(ptr noundef nonnull align 8 dereferenceable(96) %0) #30
  br label %18

17:                                               ; preds = %2
  tail call void @_ZN2cv15ImageCollection4Impl8readDataEv(ptr dead_on_unwind writable sret(%"class.cv::Mat") align 8 %0, ptr noundef nonnull align 8 dereferenceable(104) %1)
  br label %18

18:                                               ; preds = %17, %16
  ret void
}